target datalayout = "e-m:e-p270:32:32-p271:32:32-p272:64:64-i64:64-i128:128-f80:128-n8:16:32:64-S128"
target triple = "x86_64-pc-linux-gnu"

%struct.b2Vec2 = type { float, float }
%struct.RainData = type { [200 x %struct.Group], float, i32, i32, i32 }
%struct.Group = type { [5 x %struct.Human] }
%struct.Human = type { [11 x %struct.Bone], float, i8 }
%struct.Bone = type { %struct.b2BodyId, %struct.b2JointId, float, i32 }
%struct.b2BodyId = type { i32, i16, i16 }
%struct.b2JointId = type { i32, i16, i16 }
%struct.b2Rot = type { float, float }
%struct.b2WorldId = type { i16, i16 }
%struct.b2ShapeDef = type { ptr, float, float, float, float, i32, float, %struct.b2Filter, i32, i8, i8, i8, i8, i8, i8, i32 }
%struct.b2Filter = type { i64, i64, i32 }
%struct.b2BodyDef = type { i32, %struct.b2Vec2, %struct.b2Rot, %struct.b2Vec2, float, float, float, float, float, ptr, ptr, i8, i8, i8, i8, i8, i8, i32 }
%struct.b2ShapeId = type { i32, i16, i16 }
%struct.b2Polygon = type { [8 x %struct.b2Vec2], [8 x %struct.b2Vec2], %struct.b2Vec2, float, i32 }

@g_rainData = global %struct.RainData zeroinitializer, align 4
@b2Rot_identity = internal constant %struct.b2Rot { float 1.000000e+00, float 0.000000e+00 }, align 4

; Function Attrs: nounwind uwtable
define void @CreateRain(i32 %0) #6 {
  %2 = alloca %struct.b2WorldId, align 2
  %3 = alloca %struct.b2BodyDef, align 8
  %4 = alloca %struct.b2BodyId, align 4
  %5 = alloca %struct.b2ShapeDef, align 8
  %6 = alloca float, align 4
  %7 = alloca float, align 4
  %8 = alloca float, align 4
  %9 = alloca i32, align 4
  %10 = alloca i32, align 4
  %11 = alloca float, align 4
  %12 = alloca i32, align 4
  %13 = alloca %struct.b2Polygon, align 4
  %14 = alloca %struct.b2Vec2, align 4
  %15 = alloca %struct.b2ShapeId, align 4
  store i32 %0, ptr %2, align 2
  call void @llvm.memset.p0.i64(ptr align 4 @g_rainData, i8 0, i64 272016, i1 false)
  store float 5.000000e-01, ptr getelementptr inbounds nuw (%struct.RainData, ptr @g_rainData, i32 0, i32 1), align 4, !tbaa !41
  store i32 500, ptr getelementptr inbounds nuw (%struct.RainData, ptr @g_rainData, i32 0, i32 2), align 4, !tbaa !43
  call void @llvm.lifetime.start.p0(i64 80, ptr %3) #9
  call void @b2DefaultBodyDef(ptr dead_on_unwind writable sret(%struct.b2BodyDef) align 8 %3)
  call void @llvm.lifetime.start.p0(i64 8, ptr %4) #9
  %16 = load i32, ptr %2, align 2
  %17 = call i64 @b2CreateBody(i32 %16, ptr noundef %3)
  store i64 %17, ptr %4, align 4
  call void @llvm.lifetime.start.p0(i64 72, ptr %5) #9
  call void @b2DefaultShapeDef(ptr dead_on_unwind writable sret(%struct.b2ShapeDef) align 8 %5)
  call void @llvm.lifetime.start.p0(i64 4, ptr %6) #9
  store float 0.000000e+00, ptr %6, align 4, !tbaa !18
  call void @llvm.lifetime.start.p0(i64 4, ptr %7) #9
  %18 = load float, ptr getelementptr inbounds nuw (%struct.RainData, ptr @g_rainData, i32 0, i32 1), align 4, !tbaa !41
  store float %18, ptr %7, align 4, !tbaa !18
  call void @llvm.lifetime.start.p0(i64 4, ptr %8) #9
  %19 = load float, ptr getelementptr inbounds nuw (%struct.RainData, ptr @g_rainData, i32 0, i32 1), align 4, !tbaa !41
  store float %19, ptr %8, align 4, !tbaa !18
  call void @llvm.lifetime.start.p0(i64 4, ptr %9) #9
  store i32 0, ptr %9, align 4, !tbaa !3
  br label %20

20:                                               ; preds = %57, %1
  %21 = load i32, ptr %9, align 4, !tbaa !3
  %22 = icmp slt i32 %21, 5
  br i1 %22, label %24, label %23

23:                                               ; preds = %20
  store i32 2, ptr %10, align 4
  call void @llvm.lifetime.end.p0(i64 4, ptr %9) #9
  br label %60

24:                                               ; preds = %20
  call void @llvm.lifetime.start.p0(i64 4, ptr %11) #9
  %25 = load i32, ptr getelementptr inbounds nuw (%struct.RainData, ptr @g_rainData, i32 0, i32 2), align 4, !tbaa !43
  %26 = sitofp i32 %25 to float
  %27 = fmul float -5.000000e-01, %26
  %28 = load float, ptr getelementptr inbounds nuw (%struct.RainData, ptr @g_rainData, i32 0, i32 1), align 4, !tbaa !41
  %29 = fmul float %27, %28
  store float %29, ptr %11, align 4, !tbaa !18
  call void @llvm.lifetime.start.p0(i64 4, ptr %12) #9
  store i32 0, ptr %12, align 4, !tbaa !3
  br label %30

30:                                               ; preds = %51, %24
  %31 = load i32, ptr %12, align 4, !tbaa !3
  %32 = load i32, ptr getelementptr inbounds nuw (%struct.RainData, ptr @g_rainData, i32 0, i32 2), align 4, !tbaa !43
  %33 = icmp sle i32 %31, %32
  br i1 %33, label %35, label %34

34:                                               ; preds = %30
  store i32 5, ptr %10, align 4
  call void @llvm.lifetime.end.p0(i64 4, ptr %12) #9
  br label %54

35:                                               ; preds = %30
  call void @llvm.lifetime.start.p0(i64 144, ptr %13) #9
  %36 = load float, ptr %7, align 4, !tbaa !18
  %37 = fmul float 5.000000e-01, %36
  %38 = load float, ptr %8, align 4, !tbaa !18
  %39 = fmul float 5.000000e-01, %38
  %40 = getelementptr inbounds nuw %struct.b2Vec2, ptr %14, i32 0, i32 0
  %41 = load float, ptr %11, align 4, !tbaa !18
  store float %41, ptr %40, align 4, !tbaa !24
  %42 = getelementptr inbounds nuw %struct.b2Vec2, ptr %14, i32 0, i32 1
  %43 = load float, ptr %6, align 4, !tbaa !18
  store float %43, ptr %42, align 4, !tbaa !25
  %44 = load <2 x float>, ptr %14, align 4
  %45 = load <2 x float>, ptr @b2Rot_identity, align 4
  call void @b2MakeOffsetBox(ptr dead_on_unwind writable sret(%struct.b2Polygon) align 4 %13, float noundef %37, float noundef %39, <2 x float> %44, <2 x float> %45)
  %46 = load i64, ptr %4, align 4
  %47 = call i64 @b2CreatePolygonShape(i64 %46, ptr noundef %5, ptr noundef %13)
  store i64 %47, ptr %15, align 4
  %48 = load float, ptr getelementptr inbounds nuw (%struct.RainData, ptr @g_rainData, i32 0, i32 1), align 4, !tbaa !41
  %49 = load float, ptr %11, align 4, !tbaa !18
  %50 = fadd float %49, %48
  store float %50, ptr %11, align 4, !tbaa !18
  call void @llvm.lifetime.end.p0(i64 144, ptr %13) #9
  br label %51

51:                                               ; preds = %35
  %52 = load i32, ptr %12, align 4, !tbaa !3
  %53 = add nsw i32 %52, 1
  store i32 %53, ptr %12, align 4, !tbaa !3
  br label %30, !llvm.loop !44

54:                                               ; preds = %34
  %55 = load float, ptr %6, align 4, !tbaa !18
  %56 = fadd float %55, 4.500000e+01
  store float %56, ptr %6, align 4, !tbaa !18
  call void @llvm.lifetime.end.p0(i64 4, ptr %11) #9
  br label %57

57:                                               ; preds = %54
  %58 = load i32, ptr %9, align 4, !tbaa !3
  %59 = add nsw i32 %58, 1
  store i32 %59, ptr %9, align 4, !tbaa !3
  br label %20, !llvm.loop !45

60:                                               ; preds = %23
  call void @llvm.lifetime.end.p0(i64 4, ptr %8) #9
  call void @llvm.lifetime.end.p0(i64 4, ptr %7) #9
  call void @llvm.lifetime.end.p0(i64 4, ptr %6) #9
  call void @llvm.lifetime.end.p0(i64 72, ptr %5) #9
  call void @llvm.lifetime.end.p0(i64 8, ptr %4) #9
  call void @llvm.lifetime.end.p0(i64 80, ptr %3) #9
  store i32 0, ptr getelementptr inbounds nuw (%struct.RainData, ptr @g_rainData, i32 0, i32 3), align 4, !tbaa !46
  store i32 0, ptr getelementptr inbounds nuw (%struct.RainData, ptr @g_rainData, i32 0, i32 4), align 4, !tbaa !47
  ret void
}