; Function Attrs: nounwind uwtable
define void @CreateRain(i32 %0) local_unnamed_addr #6 {
  %2 = alloca %struct.b2BodyDef, align 8
  %3 = alloca %struct.b2ShapeDef, align 8
  %4 = alloca %struct.b2Polygon, align 4
  tail call void @llvm.memset.p0.i64(ptr noundef nonnull align 4 dereferenceable(272016) @g_rainData, i8 0, i64 272016, i1 false)
  store float 5.000000e-01, ptr getelementptr inbounds nuw (i8, ptr @g_rainData, i64 272000), align 4, !tbaa !34
  store i32 500, ptr getelementptr inbounds nuw (i8, ptr @g_rainData, i64 272004), align 4, !tbaa !36
  call void @llvm.lifetime.start.p0(i64 80, ptr nonnull %2) #8
  call void @b2DefaultBodyDef(ptr dead_on_unwind nonnull writable sret(%struct.b2BodyDef) align 8 %2) #8
  %5 = call i64 @b2CreateBody(i32 %0, ptr noundef nonnull %2) #8
  call void @llvm.lifetime.start.p0(i64 72, ptr nonnull %3) #8
  call void @b2DefaultShapeDef(ptr dead_on_unwind nonnull writable sret(%struct.b2ShapeDef) align 8 %3) #8
  %6 = load float, ptr getelementptr inbounds nuw (i8, ptr @g_rainData, i64 272000), align 4, !tbaa !34
  %7 = fmul float %6, 5.000000e-01
  %8 = load i32, ptr getelementptr inbounds nuw (i8, ptr @g_rainData, i64 272004), align 4, !tbaa !36
  %9 = icmp slt i32 %8, 0
  br i1 %9, label %.split22.us, label %.split

.split22.us:                                      ; preds = %._crit_edge, %1
  call void @llvm.lifetime.end.p0(i64 72, ptr nonnull %3) #8
  call void @llvm.lifetime.end.p0(i64 80, ptr nonnull %2) #8
  store i32 0, ptr getelementptr inbounds nuw (i8, ptr @g_rainData, i64 272008), align 4, !tbaa !37
  store i32 0, ptr getelementptr inbounds nuw (i8, ptr @g_rainData, i64 272012), align 4, !tbaa !38
  ret void

.split:                                           ; preds = %1, %._crit_edge
  %10 = phi float [ %15, %._crit_edge ], [ %6, %1 ]
  %11 = phi i32 [ %16, %._crit_edge ], [ %8, %1 ]
  %.020 = phi float [ %17, %._crit_edge ], [ 0.000000e+00, %1 ]
  %.01519 = phi i32 [ %18, %._crit_edge ], [ 0, %1 ]
  %.not16 = icmp slt i32 %11, 0
  br i1 %.not16, label %._crit_edge, label %.lr.ph.preheader

.lr.ph.preheader:                                 ; preds = %.split
  %12 = uitofp nneg i32 %11 to float
  %13 = fmul float %12, -5.000000e-01
  %14 = fmul float %10, %13
  br label %.lr.ph

._crit_edge:                                      ; preds = %.lr.ph, %.split
  %15 = phi float [ %10, %.split ], [ %20, %.lr.ph ]
  %16 = phi i32 [ %11, %.split ], [ %23, %.lr.ph ]
  %17 = fadd float %.020, 4.500000e+01
  %18 = add nuw nsw i32 %.01519, 1
  %exitcond.not = icmp eq i32 %18, 5
  br i1 %exitcond.not, label %.split22.us, label %.split, !llvm.loop !39

.lr.ph:                                           ; preds = %.lr.ph.preheader, %.lr.ph
  %.01318 = phi i32 [ %22, %.lr.ph ], [ 0, %.lr.ph.preheader ]
  %.01417 = phi float [ %21, %.lr.ph ], [ %14, %.lr.ph.preheader ]
  call void @llvm.lifetime.start.p0(i64 144, ptr nonnull %4) #8
  %.sroa.01.0.vec.insert = insertelement <2 x float> poison, float %.01417, i64 0
  %.sroa.01.4.vec.insert = insertelement <2 x float> %.sroa.01.0.vec.insert, float %.020, i64 1
  call void @b2MakeOffsetBox(ptr dead_on_unwind nonnull writable sret(%struct.b2Polygon) align 4 %4, float noundef %7, float noundef %7, <2 x float> %.sroa.01.4.vec.insert, <2 x float> <float 1.000000e+00, float 0.000000e+00>) #8
  %19 = call i64 @b2CreatePolygonShape(i64 %5, ptr noundef nonnull %3, ptr noundef nonnull %4) #8
  %20 = load float, ptr getelementptr inbounds nuw (i8, ptr @g_rainData, i64 272000), align 4, !tbaa !34
  %21 = fadd float %.01417, %20
  call void @llvm.lifetime.end.p0(i64 144, ptr nonnull %4) #8
  %22 = add nuw nsw i32 %.01318, 1
  %23 = load i32, ptr getelementptr inbounds nuw (i8, ptr @g_rainData, i64 272004), align 4, !tbaa !36
  %.not.not = icmp slt i32 %.01318, %23
  br i1 %.not.not, label %.lr.ph, label %._crit_edge, !llvm.loop !41
}